target datalayout = "e-m:e-p270:32:32-p271:32:32-p272:64:64-i64:64-i128:128-f80:128-n8:16:32:64-S128"
target triple = "x86_64-pc-linux-gnu"

%"struct.Stockfish::StateInfo" = type { i64, i64, [2 x i32], i32, i32, i32, i32, i64, i64, ptr, [2 x i64], [2 x i64], [8 x i64], i32, i32, [24 x i8], %"struct.Stockfish::Eval::NNUE::Accumulator", %"struct.Stockfish::Eval::NNUE::Accumulator.23", %"struct.Stockfish::DirtyPiece", [24 x i8] }
%"struct.Stockfish::Eval::NNUE::Accumulator" = type { [2 x [2560 x i16]], [2 x [8 x i32]], [2 x i8], [2 x i8], [60 x i8] }
%"struct.Stockfish::Eval::NNUE::Accumulator.23" = type { [2 x [128 x i16]], [2 x [8 x i32]], [2 x i8], [2 x i8], [60 x i8] }
%"struct.Stockfish::DirtyPiece" = type { i32, [3 x i32], [3 x i32], [3 x i32] }
%"class.Stockfish::Move" = type { i16 }
%"class.__gnu_cxx::__normal_iterator.29" = type { ptr }
%"struct.Stockfish::Search::RootMove" = type { i32, i32, i32, i32, i8, i8, i32, i32, i32, %"class.std::vector.30" }
%"class.std::vector.30" = type { %"struct.std::_Vector_base.31" }
%"struct.std::_Vector_base.31" = type { %"struct.std::_Vector_base<Stockfish::Move, std::allocator<Stockfish::Move>>::_Vector_impl" }
%"struct.std::_Vector_base<Stockfish::Move, std::allocator<Stockfish::Move>>::_Vector_impl" = type { %"struct.std::_Vector_base<Stockfish::Move, std::allocator<Stockfish::Move>>::_Vector_impl_data" }
%"struct.std::_Vector_base<Stockfish::Move, std::allocator<Stockfish::Move>>::_Vector_impl_data" = type { ptr, ptr, ptr }
%"struct.std::_Vector_base.25" = type { %"struct.std::_Vector_base<Stockfish::Search::RootMove, std::allocator<Stockfish::Search::RootMove>>::_Vector_impl" }
%"struct.std::_Vector_base<Stockfish::Search::RootMove, std::allocator<Stockfish::Search::RootMove>>::_Vector_impl" = type { %"struct.std::_Vector_base<Stockfish::Search::RootMove, std::allocator<Stockfish::Search::RootMove>>::_Vector_impl_data" }
%"struct.std::_Vector_base<Stockfish::Search::RootMove, std::allocator<Stockfish::Search::RootMove>>::_Vector_impl_data" = type { ptr, ptr, ptr }

@_ZZN9Stockfish10Tablebases14root_probe_wdlERNS_8PositionERSt6vectorINS_6Search8RootMoveESaIS5_EEbE11WDL_to_rank = internal constant [5 x i32] [i32 -262144, i32 -262043, i32 0, i32 262043, i32 262144], align 16
@_ZN9Stockfish12_GLOBAL__N_112WDL_to_valueE = internal constant [5 x i32] [i32 -31753, i32 -2, i32 0, i32 2, i32 31753], align 16

; Function Attrs: mustprogress nounwind uwtable
define linkonce_odr dso_local noundef nonnull align 8 dereferenceable(8) ptr @_ZNK9__gnu_cxx17__normal_iteratorIPN9Stockfish6Search8RootMoveESt6vectorIS3_SaIS3_EEE4baseEv(ptr noundef nonnull align 8 dereferenceable(8) %0) #4 comdat align 2 {
  %2 = alloca ptr, align 8
  store ptr %0, ptr %2, align 8
  %3 = load ptr, ptr %2, align 8
  %4 = getelementptr inbounds %"class.__gnu_cxx::__normal_iterator.29", ptr %3, i32 0, i32 0
  ret ptr %4
}

; Function Attrs: mustprogress nounwind uwtable
define linkonce_odr dso_local void @_ZN9__gnu_cxx17__normal_iteratorIPN9Stockfish6Search8RootMoveESt6vectorIS3_SaIS3_EEEC2ERKS4_(ptr noundef nonnull align 8 dereferenceable(8) %0, ptr noundef nonnull align 8 dereferenceable(8) %1) unnamed_addr #4 comdat align 2 {
  %3 = alloca ptr, align 8
  %4 = alloca ptr, align 8
  store ptr %0, ptr %3, align 8
  store ptr %1, ptr %4, align 8
  %5 = load ptr, ptr %3, align 8
  %6 = getelementptr inbounds %"class.__gnu_cxx::__normal_iterator.29", ptr %5, i32 0, i32 0
  %7 = load ptr, ptr %4, align 8
  %8 = load ptr, ptr %7, align 8
  store ptr %8, ptr %6, align 8
  ret void
}

; Function Attrs: mustprogress nounwind uwtable
define linkonce_odr dso_local noundef nonnull align 8 dereferenceable(8) ptr @_ZN9__gnu_cxx17__normal_iteratorIPN9Stockfish6Search8RootMoveESt6vectorIS3_SaIS3_EEEppEv(ptr noundef nonnull align 8 dereferenceable(8) %0) #4 comdat align 2 {
  %2 = alloca ptr, align 8
  store ptr %0, ptr %2, align 8
  %3 = load ptr, ptr %2, align 8
  %4 = getelementptr inbounds %"class.__gnu_cxx::__normal_iterator.29", ptr %3, i32 0, i32 0
  %5 = load ptr, ptr %4, align 8
  %6 = getelementptr inbounds %"struct.Stockfish::Search::RootMove", ptr %5, i32 1
  store ptr %6, ptr %4, align 8
  ret ptr %3
}

; Function Attrs: mustprogress nounwind uwtable
define internal noundef i32 @_ZN9Stockfish12_GLOBAL__N_1ngENS_10Tablebases8WDLScoreE(i32 noundef %0) #4 {
  %2 = alloca i32, align 4
  store i32 %0, ptr %2, align 4
  %3 = load i32, ptr %2, align 4
  %4 = sub nsw i32 0, %3
  ret i32 %4
}

; Function Attrs: mustprogress nounwind uwtable
define dso_local noundef i32 @_ZN9Stockfish10Tablebases9probe_wdlERNS_8PositionEPNS0_10ProbeStateE(ptr noundef nonnull align 8 dereferenceable(865) %0, ptr noundef %1) #4 {
  %3 = alloca ptr, align 8
  %4 = alloca ptr, align 8
  store ptr %0, ptr %3, align 8
  store ptr %1, ptr %4, align 8
  %5 = load ptr, ptr %4, align 8
  store i32 1, ptr %5, align 4
  %6 = load ptr, ptr %3, align 8
  %7 = load ptr, ptr %4, align 8
  %8 = call noundef i32 @_ZN9Stockfish12_GLOBAL__N_16searchILb0EEENS_10Tablebases8WDLScoreERNS_8PositionEPNS2_10ProbeStateE(ptr noundef nonnull align 8 dereferenceable(865) %6, ptr noundef %7)
  ret i32 %8
}

; Function Attrs: mustprogress nounwind uwtable
define linkonce_odr dso_local void @_ZN9Stockfish8Position7do_moveENS_4MoveERNS_9StateInfoE(ptr noundef nonnull align 8 dereferenceable(865) %0, i16 %1, ptr noundef nonnull align 64 dereferenceable(11264) %2) #4 comdat align 2 {
  %4 = alloca %"class.Stockfish::Move", align 2
  %5 = alloca ptr, align 8
  %6 = alloca ptr, align 8
  %7 = alloca %"class.Stockfish::Move", align 2
  %8 = alloca %"class.Stockfish::Move", align 2
  %9 = getelementptr inbounds %"class.Stockfish::Move", ptr %4, i32 0, i32 0
  store i16 %1, ptr %9, align 2
  store ptr %0, ptr %5, align 8
  store ptr %2, ptr %6, align 8
  %10 = load ptr, ptr %5, align 8
  call void @llvm.memcpy.p0.p0.i64(ptr align 2 %7, ptr align 2 %4, i64 2, i1 false)
  %11 = load ptr, ptr %6, align 8
  call void @llvm.memcpy.p0.p0.i64(ptr align 2 %8, ptr align 2 %4, i64 2, i1 false)
  %12 = getelementptr inbounds %"class.Stockfish::Move", ptr %8, i32 0, i32 0
  %13 = load i16, ptr %12, align 2
  %14 = call noundef zeroext i1 @_ZNK9Stockfish8Position11gives_checkENS_4MoveE(ptr noundef nonnull align 8 dereferenceable(865) %10, i16 %13)
  %15 = getelementptr inbounds %"class.Stockfish::Move", ptr %7, i32 0, i32 0
  %16 = load i16, ptr %15, align 2
  call void @_ZN9Stockfish8Position7do_moveENS_4MoveERNS_9StateInfoEb(ptr noundef nonnull align 8 dereferenceable(865) %10, i16 %16, ptr noundef nonnull align 64 dereferenceable(11264) %11, i1 noundef zeroext %14)
  ret void
}

; Function Attrs: mustprogress nounwind uwtable
define linkonce_odr dso_local noundef nonnull align 2 dereferenceable(2) ptr @_ZNSt6vectorIN9Stockfish4MoveESaIS1_EEixEm(ptr noundef nonnull align 8 dereferenceable(24) %0, i64 noundef %1) #4 comdat align 2 {
  %3 = alloca ptr, align 8
  %4 = alloca i64, align 8
  store ptr %0, ptr %3, align 8
  store i64 %1, ptr %4, align 8
  %5 = load ptr, ptr %3, align 8
  %6 = getelementptr inbounds %"struct.std::_Vector_base.31", ptr %5, i32 0, i32 0
  %7 = getelementptr inbounds %"struct.std::_Vector_base<Stockfish::Move, std::allocator<Stockfish::Move>>::_Vector_impl_data", ptr %6, i32 0, i32 0
  %8 = load ptr, ptr %7, align 8
  %9 = load i64, ptr %4, align 8
  %10 = getelementptr inbounds %"class.Stockfish::Move", ptr %8, i64 %9
  ret ptr %10
}

; Function Attrs: mustprogress nounwind uwtable
define linkonce_odr dso_local noundef nonnull align 8 dereferenceable(56) ptr @_ZNK9__gnu_cxx17__normal_iteratorIPN9Stockfish6Search8RootMoveESt6vectorIS3_SaIS3_EEEdeEv(ptr noundef nonnull align 8 dereferenceable(8) %0) #4 comdat align 2 {
  %2 = alloca ptr, align 8
  store ptr %0, ptr %2, align 8
  %3 = load ptr, ptr %2, align 8
  %4 = getelementptr inbounds %"class.__gnu_cxx::__normal_iterator.29", ptr %3, i32 0, i32 0
  %5 = load ptr, ptr %4, align 8
  ret ptr %5
}

; Function Attrs: mustprogress nounwind uwtable
define linkonce_odr dso_local noundef zeroext i1 @_ZN9__gnu_cxxneIPN9Stockfish6Search8RootMoveESt6vectorIS3_SaIS3_EEEEbRKNS_17__normal_iteratorIT_T0_EESD_(ptr noundef nonnull align 8 dereferenceable(8) %0, ptr noundef nonnull align 8 dereferenceable(8) %1) #4 comdat {
  %3 = alloca ptr, align 8
  %4 = alloca ptr, align 8
  store ptr %0, ptr %3, align 8
  store ptr %1, ptr %4, align 8
  %5 = load ptr, ptr %3, align 8
  %6 = call noundef nonnull align 8 dereferenceable(8) ptr @_ZNK9__gnu_cxx17__normal_iteratorIPN9Stockfish6Search8RootMoveESt6vectorIS3_SaIS3_EEE4baseEv(ptr noundef nonnull align 8 dereferenceable(8) %5) #3
  %7 = load ptr, ptr %6, align 8
  %8 = load ptr, ptr %4, align 8
  %9 = call noundef nonnull align 8 dereferenceable(8) ptr @_ZNK9__gnu_cxx17__normal_iteratorIPN9Stockfish6Search8RootMoveESt6vectorIS3_SaIS3_EEE4baseEv(ptr noundef nonnull align 8 dereferenceable(8) %8) #3
  %10 = load ptr, ptr %9, align 8
  %11 = icmp ne ptr %7, %10
  ret i1 %11
}

; Function Attrs: mustprogress nounwind uwtable
define linkonce_odr dso_local ptr @_ZNSt6vectorIN9Stockfish6Search8RootMoveESaIS2_EE3endEv(ptr noundef nonnull align 8 dereferenceable(24) %0) #4 comdat align 2 {
  %2 = alloca %"class.__gnu_cxx::__normal_iterator.29", align 8
  %3 = alloca ptr, align 8
  store ptr %0, ptr %3, align 8
  %4 = load ptr, ptr %3, align 8
  %5 = getelementptr inbounds %"struct.std::_Vector_base.25", ptr %4, i32 0, i32 0
  %6 = getelementptr inbounds %"struct.std::_Vector_base<Stockfish::Search::RootMove, std::allocator<Stockfish::Search::RootMove>>::_Vector_impl_data", ptr %5, i32 0, i32 1
  call void @_ZN9__gnu_cxx17__normal_iteratorIPN9Stockfish6Search8RootMoveESt6vectorIS3_SaIS3_EEEC2ERKS4_(ptr noundef nonnull align 8 dereferenceable(8) %2, ptr noundef nonnull align 8 dereferenceable(8) %6) #3
  %7 = getelementptr inbounds %"class.__gnu_cxx::__normal_iterator.29", ptr %2, i32 0, i32 0
  %8 = load ptr, ptr %7, align 8
  ret ptr %8
}

; Function Attrs: mustprogress nounwind uwtable
define linkonce_odr dso_local ptr @_ZNSt6vectorIN9Stockfish6Search8RootMoveESaIS2_EE5beginEv(ptr noundef nonnull align 8 dereferenceable(24) %0) #4 comdat align 2 {
  %2 = alloca %"class.__gnu_cxx::__normal_iterator.29", align 8
  %3 = alloca ptr, align 8
  store ptr %0, ptr %3, align 8
  %4 = load ptr, ptr %3, align 8
  %5 = getelementptr inbounds %"struct.std::_Vector_base.25", ptr %4, i32 0, i32 0
  %6 = getelementptr inbounds %"struct.std::_Vector_base<Stockfish::Search::RootMove, std::allocator<Stockfish::Search::RootMove>>::_Vector_impl_data", ptr %5, i32 0, i32 0
  call void @_ZN9__gnu_cxx17__normal_iteratorIPN9Stockfish6Search8RootMoveESt6vectorIS3_SaIS3_EEEC2ERKS4_(ptr noundef nonnull align 8 dereferenceable(8) %2, ptr noundef nonnull align 8 dereferenceable(8) %6) #3
  %7 = getelementptr inbounds %"class.__gnu_cxx::__normal_iterator.29", ptr %2, i32 0, i32 0
  %8 = load ptr, ptr %7, align 8
  ret ptr %8
}

; Function Attrs: mustprogress nounwind uwtable
define dso_local noundef zeroext i1 @_ZN9Stockfish10Tablebases14root_probe_wdlERNS_8PositionERSt6vectorINS_6Search8RootMoveESaIS5_EEb(ptr noundef nonnull align 8 dereferenceable(865) %0, ptr noundef nonnull align 8 dereferenceable(24) %1, i1 noundef zeroext %2) #4 {
  %4 = alloca i1, align 1
  %5 = alloca ptr, align 8
  %6 = alloca ptr, align 8
  %7 = alloca i8, align 1
  %8 = alloca i32, align 4
  %9 = alloca %"struct.Stockfish::StateInfo", align 64
  %10 = alloca i32, align 4
  %11 = alloca ptr, align 8
  %12 = alloca %"class.__gnu_cxx::__normal_iterator.29", align 8
  %13 = alloca %"class.__gnu_cxx::__normal_iterator.29", align 8
  %14 = alloca ptr, align 8
  %15 = alloca %"class.Stockfish::Move", align 2
  %16 = alloca %"class.Stockfish::Move", align 2
  store ptr %0, ptr %5, align 8
  store ptr %1, ptr %6, align 8
  %17 = zext i1 %2 to i8
  store i8 %17, ptr %7, align 1
  store i32 1, ptr %8, align 4
  %18 = load ptr, ptr %6, align 8
  store ptr %18, ptr %11, align 8
  %19 = load ptr, ptr %11, align 8
  %20 = call ptr @_ZNSt6vectorIN9Stockfish6Search8RootMoveESaIS2_EE5beginEv(ptr noundef nonnull align 8 dereferenceable(24) %19) #3
  %21 = getelementptr inbounds %"class.__gnu_cxx::__normal_iterator.29", ptr %12, i32 0, i32 0
  store ptr %20, ptr %21, align 8
  %22 = load ptr, ptr %11, align 8
  %23 = call ptr @_ZNSt6vectorIN9Stockfish6Search8RootMoveESaIS2_EE3endEv(ptr noundef nonnull align 8 dereferenceable(24) %22) #3
  %24 = getelementptr inbounds %"class.__gnu_cxx::__normal_iterator.29", ptr %13, i32 0, i32 0
  store ptr %23, ptr %24, align 8
  br label %25

25:                                               ; preds = %80, %3
  %26 = call noundef zeroext i1 @_ZN9__gnu_cxxneIPN9Stockfish6Search8RootMoveESt6vectorIS3_SaIS3_EEEEbRKNS_17__normal_iteratorIT_T0_EESD_(ptr noundef nonnull align 8 dereferenceable(8) %12, ptr noundef nonnull align 8 dereferenceable(8) %13) #3
  br i1 %26, label %27, label %82

27:                                               ; preds = %25
  %28 = call noundef nonnull align 8 dereferenceable(56) ptr @_ZNK9__gnu_cxx17__normal_iteratorIPN9Stockfish6Search8RootMoveESt6vectorIS3_SaIS3_EEEdeEv(ptr noundef nonnull align 8 dereferenceable(8) %12) #3
  store ptr %28, ptr %14, align 8
  %29 = load ptr, ptr %5, align 8
  %30 = load ptr, ptr %14, align 8
  %31 = getelementptr inbounds %"struct.Stockfish::Search::RootMove", ptr %30, i32 0, i32 9
  %32 = call noundef nonnull align 2 dereferenceable(2) ptr @_ZNSt6vectorIN9Stockfish4MoveESaIS1_EEixEm(ptr noundef nonnull align 8 dereferenceable(24) %31, i64 noundef 0) #3
  call void @llvm.memcpy.p0.p0.i64(ptr align 2 %15, ptr align 2 %32, i64 2, i1 false)
  %33 = getelementptr inbounds %"class.Stockfish::Move", ptr %15, i32 0, i32 0
  %34 = load i16, ptr %33, align 2
  call void @_ZN9Stockfish8Position7do_moveENS_4MoveERNS_9StateInfoE(ptr noundef nonnull align 8 dereferenceable(865) %29, i16 %34, ptr noundef nonnull align 64 dereferenceable(11264) %9)
  %35 = load ptr, ptr %5, align 8
  %36 = call noundef zeroext i1 @_ZNK9Stockfish8Position7is_drawEi(ptr noundef nonnull align 8 dereferenceable(865) %35, i32 noundef 1)
  br i1 %36, label %37, label %38

37:                                               ; preds = %27
  store i32 0, ptr %10, align 4
  br label %42

38:                                               ; preds = %27
  %39 = load ptr, ptr %5, align 8
  %40 = call noundef i32 @_ZN9Stockfish10Tablebases9probe_wdlERNS_8PositionEPNS0_10ProbeStateE(ptr noundef nonnull align 8 dereferenceable(865) %39, ptr noundef %8)
  %41 = call noundef i32 @_ZN9Stockfish12_GLOBAL__N_1ngENS_10Tablebases8WDLScoreE(i32 noundef %40)
  store i32 %41, ptr %10, align 4
  br label %42

42:                                               ; preds = %38, %37
  %43 = load ptr, ptr %5, align 8
  %44 = load ptr, ptr %14, align 8
  %45 = getelementptr inbounds %"struct.Stockfish::Search::RootMove", ptr %44, i32 0, i32 9
  %46 = call noundef nonnull align 2 dereferenceable(2) ptr @_ZNSt6vectorIN9Stockfish4MoveESaIS1_EEixEm(ptr noundef nonnull align 8 dereferenceable(24) %45, i64 noundef 0) #3
  call void @llvm.memcpy.p0.p0.i64(ptr align 2 %16, ptr align 2 %46, i64 2, i1 false)
  %47 = getelementptr inbounds %"class.Stockfish::Move", ptr %16, i32 0, i32 0
  %48 = load i16, ptr %47, align 2
  call void @_ZN9Stockfish8Position9undo_moveENS_4MoveE(ptr noundef nonnull align 8 dereferenceable(865) %43, i16 %48)
  %49 = load i32, ptr %8, align 4
  %50 = icmp eq i32 %49, 0
  br i1 %50, label %51, label %52

51:                                               ; preds = %42
  store i1 false, ptr %4, align 1
  br label %83

52:                                               ; preds = %42
  %53 = load i32, ptr %10, align 4
  %54 = add nsw i32 %53, 2
  %55 = sext i32 %54 to i64
  %56 = getelementptr inbounds [5 x i32], ptr @_ZZN9Stockfish10Tablebases14root_probe_wdlERNS_8PositionERSt6vectorINS_6Search8RootMoveESaIS5_EEbE11WDL_to_rank, i64 0, i64 %55
  %57 = load i32, ptr %56, align 4
  %58 = load ptr, ptr %14, align 8
  %59 = getelementptr inbounds %"struct.Stockfish::Search::RootMove", ptr %58, i32 0, i32 7
  store i32 %57, ptr %59, align 8
  %60 = load i8, ptr %7, align 1
  %61 = trunc i8 %60 to i1
  br i1 %61, label %72, label %62

62:                                               ; preds = %52
  %63 = load i32, ptr %10, align 4
  %64 = icmp sgt i32 %63, 0
  br i1 %64, label %65, label %66

65:                                               ; preds = %62
  br label %70

66:                                               ; preds = %62
  %67 = load i32, ptr %10, align 4
  %68 = icmp slt i32 %67, 0
  %69 = select i1 %68, i32 -2, i32 0
  br label %70

70:                                               ; preds = %66, %65
  %71 = phi i32 [ 2, %65 ], [ %69, %66 ]
  store i32 %71, ptr %10, align 4
  br label %72

72:                                               ; preds = %70, %52
  %73 = load i32, ptr %10, align 4
  %74 = add nsw i32 %73, 2
  %75 = sext i32 %74 to i64
  %76 = getelementptr inbounds [5 x i32], ptr @_ZN9Stockfish12_GLOBAL__N_112WDL_to_valueE, i64 0, i64 %75
  %77 = load i32, ptr %76, align 4
  %78 = load ptr, ptr %14, align 8
  %79 = getelementptr inbounds %"struct.Stockfish::Search::RootMove", ptr %78, i32 0, i32 8
  store i32 %77, ptr %79, align 4
  br label %80

80:                                               ; preds = %72
  %81 = call noundef nonnull align 8 dereferenceable(8) ptr @_ZN9__gnu_cxx17__normal_iteratorIPN9Stockfish6Search8RootMoveESt6vectorIS3_SaIS3_EEEppEv(ptr noundef nonnull align 8 dereferenceable(8) %12) #3
  br label %25

82:                                               ; preds = %25
  store i1 true, ptr %4, align 1
  br label %83

83:                                               ; preds = %82, %51
  %84 = load i1, ptr %4, align 1
  ret i1 %84
}