; Function Attrs: mustprogress nounwind uwtable
define dso_local noundef zeroext i1 @_ZN9Stockfish10Tablebases14root_probe_wdlERNS_8PositionERSt6vectorINS_6Search8RootMoveESaIS5_EEb(ptr noundef nonnull align 8 dereferenceable(865) %0, ptr nocapture noundef nonnull readonly align 8 dereferenceable(24) %1, i1 noundef zeroext %2) local_unnamed_addr #3 {
  %4 = alloca i32, align 4
  %5 = alloca %"struct.Stockfish::StateInfo", align 64
  %6 = load ptr, ptr %1, align 8
  %7 = getelementptr inbounds i8, ptr %1, i64 8
  %8 = load ptr, ptr %7, align 8
  %.not21 = icmp eq ptr %6, %8
  br i1 %.not21, label %._crit_edge, label %.lr.ph

.lr.ph:                                           ; preds = %3
  br i1 %2, label %.lr.ph.split.us, label %.lr.ph.split

.lr.ph.split.us:                                  ; preds = %.lr.ph, %20
  %9 = phi i32 [ %18, %20 ], [ 1, %.lr.ph ]
  %.sroa.018.022.us = phi ptr [ %29, %20 ], [ %6, %.lr.ph ]
  %10 = getelementptr inbounds i8, ptr %.sroa.018.022.us, i64 32
  %11 = load ptr, ptr %10, align 8
  %.sroa.01.0.copyload.us = load i16, ptr %11, align 2
  %12 = call noundef zeroext i1 @_ZNK9Stockfish8Position11gives_checkENS_4MoveE(ptr noundef nonnull align 8 dereferenceable(865) %0, i16 %.sroa.01.0.copyload.us) #24
  call void @_ZN9Stockfish8Position7do_moveENS_4MoveERNS_9StateInfoEb(ptr noundef nonnull align 8 dereferenceable(865) %0, i16 %.sroa.01.0.copyload.us, ptr noundef nonnull align 64 dereferenceable(11264) %5, i1 noundef zeroext %12) #24
  %13 = call noundef zeroext i1 @_ZNK9Stockfish8Position7is_drawEi(ptr noundef nonnull align 8 dereferenceable(865) %0, i32 noundef 1) #24
  br i1 %13, label %17, label %14

14:                                               ; preds = %.lr.ph.split.us
  store i32 1, ptr %4, align 4
  %15 = call fastcc noundef i32 @_ZN9Stockfish12_GLOBAL__N_16searchILb0EEENS_10Tablebases8WDLScoreERNS_8PositionEPNS2_10ProbeStateE(ptr noundef nonnull align 8 dereferenceable(865) %0, ptr noundef nonnull %4), !range !70
  %16 = sub nsw i32 0, %15
  %.pre29 = load i32, ptr %4, align 4
  br label %17

17:                                               ; preds = %14, %.lr.ph.split.us
  %18 = phi i32 [ %.pre29, %14 ], [ %9, %.lr.ph.split.us ]
  %.017.us = phi i32 [ %16, %14 ], [ 0, %.lr.ph.split.us ]
  %19 = load ptr, ptr %10, align 8
  %.sroa.0.0.copyload.us = load i16, ptr %19, align 2
  call void @_ZN9Stockfish8Position9undo_moveENS_4MoveE(ptr noundef nonnull align 8 dereferenceable(865) %0, i16 %.sroa.0.0.copyload.us) #24
  %.not33 = icmp ne i32 %18, 0
  br i1 %.not33, label %20, label %._crit_edge

20:                                               ; preds = %17
  %21 = add nsw i32 %.017.us, 2
  %22 = sext i32 %21 to i64
  %23 = getelementptr inbounds [5 x i32], ptr @_ZZN9Stockfish10Tablebases14root_probe_wdlERNS_8PositionERSt6vectorINS_6Search8RootMoveESaIS5_EEbE11WDL_to_rank, i64 0, i64 %22
  %24 = load i32, ptr %23, align 4
  %25 = getelementptr inbounds i8, ptr %.sroa.018.022.us, i64 24
  store i32 %24, ptr %25, align 8
  %26 = getelementptr inbounds [5 x i32], ptr @_ZN9Stockfish12_GLOBAL__N_112WDL_to_valueE, i64 0, i64 %22
  %27 = load i32, ptr %26, align 4
  %28 = getelementptr inbounds i8, ptr %.sroa.018.022.us, i64 28
  store i32 %27, ptr %28, align 4
  %29 = getelementptr inbounds i8, ptr %.sroa.018.022.us, i64 56
  %.not.us = icmp eq ptr %29, %8
  br i1 %.not.us, label %._crit_edge, label %.lr.ph.split.us

.lr.ph.split:                                     ; preds = %.lr.ph, %41
  %30 = phi i32 [ %39, %41 ], [ 1, %.lr.ph ]
  %.sroa.018.022 = phi ptr [ %56, %41 ], [ %6, %.lr.ph ]
  %31 = getelementptr inbounds i8, ptr %.sroa.018.022, i64 32
  %32 = load ptr, ptr %31, align 8
  %.sroa.01.0.copyload = load i16, ptr %32, align 2
  %33 = call noundef zeroext i1 @_ZNK9Stockfish8Position11gives_checkENS_4MoveE(ptr noundef nonnull align 8 dereferenceable(865) %0, i16 %.sroa.01.0.copyload) #24
  call void @_ZN9Stockfish8Position7do_moveENS_4MoveERNS_9StateInfoEb(ptr noundef nonnull align 8 dereferenceable(865) %0, i16 %.sroa.01.0.copyload, ptr noundef nonnull align 64 dereferenceable(11264) %5, i1 noundef zeroext %33) #24
  %34 = call noundef zeroext i1 @_ZNK9Stockfish8Position7is_drawEi(ptr noundef nonnull align 8 dereferenceable(865) %0, i32 noundef 1) #24
  br i1 %34, label %38, label %35

35:                                               ; preds = %.lr.ph.split
  store i32 1, ptr %4, align 4
  %36 = call fastcc noundef i32 @_ZN9Stockfish12_GLOBAL__N_16searchILb0EEENS_10Tablebases8WDLScoreERNS_8PositionEPNS2_10ProbeStateE(ptr noundef nonnull align 8 dereferenceable(865) %0, ptr noundef nonnull %4), !range !70
  %37 = sub nsw i32 0, %36
  %.pre = load i32, ptr %4, align 4
  br label %38

38:                                               ; preds = %.lr.ph.split, %35
  %39 = phi i32 [ %.pre, %35 ], [ %30, %.lr.ph.split ]
  %.017 = phi i32 [ %37, %35 ], [ 0, %.lr.ph.split ]
  %40 = load ptr, ptr %31, align 8
  %.sroa.0.0.copyload = load i16, ptr %40, align 2
  call void @_ZN9Stockfish8Position9undo_moveENS_4MoveE(ptr noundef nonnull align 8 dereferenceable(865) %0, i16 %.sroa.0.0.copyload) #24
  %.not32 = icmp ne i32 %39, 0
  br i1 %.not32, label %41, label %._crit_edge

41:                                               ; preds = %38
  %42 = add nsw i32 %.017, 2
  %43 = sext i32 %42 to i64
  %44 = getelementptr inbounds [5 x i32], ptr @_ZZN9Stockfish10Tablebases14root_probe_wdlERNS_8PositionERSt6vectorINS_6Search8RootMoveESaIS5_EEbE11WDL_to_rank, i64 0, i64 %43
  %45 = load i32, ptr %44, align 4
  %46 = getelementptr inbounds i8, ptr %.sroa.018.022, i64 24
  store i32 %45, ptr %46, align 8
  %47 = icmp sgt i32 %.017, 0
  %48 = lshr i32 %.017, 30
  %49 = and i32 %48, 2
  %50 = xor i32 %49, 2
  %51 = select i1 %47, i32 4, i32 %50
  %52 = zext nneg i32 %51 to i64
  %53 = getelementptr inbounds [5 x i32], ptr @_ZN9Stockfish12_GLOBAL__N_112WDL_to_valueE, i64 0, i64 %52
  %54 = load i32, ptr %53, align 8
  %55 = getelementptr inbounds i8, ptr %.sroa.018.022, i64 28
  store i32 %54, ptr %55, align 4
  %56 = getelementptr inbounds i8, ptr %.sroa.018.022, i64 56
  %.not = icmp eq ptr %56, %8
  br i1 %.not, label %._crit_edge, label %.lr.ph.split

._crit_edge:                                      ; preds = %38, %41, %17, %20, %3
  %.not.lcssa = phi i1 [ true, %3 ], [ %.not33, %20 ], [ %.not33, %17 ], [ %.not32, %41 ], [ %.not32, %38 ]
  ret i1 %.not.lcssa
}